Certificate:
    Data:
        Version: 1 (0x0)
        Serial Number: 4105 (0x1009)
    Signature Algorithm: sha256WithRSAEncryption
        Issuer: C=CR, ST=San Jose, L=San Pedro, O=UCR, OU=ECCI, CN=Equipo 4
        Validity
            Not Before: Jun  4 21:40:58 2023 GMT
            Not After : Jun  3 21:40:58 2024 GMT
        Subject: CN=angie.castillocampos, ST=San Jose, C=CR/emailAddress=angie.castillocampos@ucr.ac.cr, O=UCR, OU=ECCI
        Subject Public Key Info:
            Public Key Algorithm: rsaEncryption
                Public-Key: (2048 bit)
                Modulus:
                    00:bf:9b:2f:91:96:e4:5d:f9:f1:3e:7c:e6:7b:ea:
                    01:59:d0:1e:db:5b:3c:32:83:a9:48:ea:12:47:be:
                    38:8b:4d:9a:a1:69:5a:e6:bb:42:60:5b:ad:48:8f:
                    4a:3c:16:8d:dd:d5:b3:78:b6:50:92:4b:bc:d6:88:
                    44:8d:ff:8a:c0:4d:b1:96:7c:5c:e3:40:b7:2b:b6:
                    5f:54:46:76:54:90:bc:7a:c6:43:2f:c9:56:d5:4e:
                    77:f3:c9:4a:ba:8b:7f:f4:99:35:04:51:ba:c1:00:
                    4b:1d:50:7d:cb:b7:98:d7:e6:f0:05:ea:e4:23:1d:
                    5f:91:8b:59:93:de:2b:1f:82:f3:7f:64:99:ef:f1:
                    38:80:cf:c5:d1:21:50:95:aa:54:11:2b:cd:16:fe:
                    f2:5c:27:3f:69:d3:41:d8:43:89:e1:10:ec:80:db:
                    8f:f5:d5:db:28:c9:46:af:2a:b5:ef:52:79:3e:28:
                    b9:23:99:a9:f1:10:14:21:df:cd:bc:51:00:82:d6:
                    22:ae:b2:71:48:55:0e:84:68:b0:b1:bf:2e:f3:1e:
                    47:b2:6e:18:f6:2a:66:e5:0c:ef:90:f3:2f:d3:a2:
                    4b:f3:19:12:b9:e3:86:d4:b9:59:c0:c9:28:69:92:
                    4e:33:24:3c:39:90:26:95:98:df:db:6f:ee:f7:7a:
                    2e:91
                Exponent: 65537 (0x10001)
    Signature Algorithm: sha256WithRSAEncryption
         c4:39:01:d1:13:e5:44:0d:b7:2f:8f:32:12:49:f5:2a:77:ee:
         58:a4:76:fb:36:f0:c9:51:04:9a:8f:b0:92:ff:24:88:66:04:
         a4:6a:7c:89:e8:db:55:e8:b5:5f:5f:c3:9c:98:bd:1c:a7:e3:
         a7:ad:66:31:56:ef:3a:0d:51:0c:b3:b2:75:f4:1e:d8:14:09:
         24:19:20:3f:77:90:fc:38:c6:db:f9:5b:e0:72:3b:f1:76:f5:
         a5:27:53:b1:3f:33:dc:06:ab:11:40:f7:1d:ab:ce:41:8f:04:
         6d:57:16:6d:1a:b0:46:41:34:4d:28:93:26:2c:fd:84:02:03:
         73:ba
-----BEGIN CERTIFICATE-----
MIIC5DCCAk0CAhAJMA0GCSqGSIb3DQEBCwUAMGQxCzAJBgNVBAYTAkNSMREwDwYD
VQQIDAhTYW4gSm9zZTESMBAGA1UEBwwJU2FuIFBlZHJvMQwwCgYDVQQKDANVQ1Ix
DTALBgNVBAsMBEVDQ0kxETAPBgNVBAMMCEVxdWlwbyA0MB4XDTIzMDYwNDIxNDA1
OFoXDTI0MDYwMzIxNDA1OFowgYsxHTAbBgNVBAMMFGFuZ2llLmNhc3RpbGxvY2Ft
cG9zMREwDwYDVQQIDAhTYW4gSm9zZTELMAkGA1UEBhMCQ1IxLTArBgkqhkiG9w0B
CQEWHmFuZ2llLmNhc3RpbGxvY2FtcG9zQHVjci5hYy5jcjEMMAoGA1UECgwDVUNS
MQ0wCwYDVQQLDARFQ0NJMIIBIjANBgkqhkiG9w0BAQEFAAOCAQ8AMIIBCgKCAQEA
v5svkZbkXfnxPnzme+oBWdAe21s8MoOpSOoSR744i02aoWla5rtCYFutSI9KPBaN
3dWzeLZQkku81ohEjf+KwE2xlnxc40C3K7ZfVEZ2VJC8esZDL8lW1U5388lKuot/
9Jk1BFG6wQBLHVB9y7eY1+bwBerkIx1fkYtZk94rH4Lzf2SZ7/E4gM/F0SFQlapU
ESvNFv7yXCc/adNB2EOJ4RDsgNuP9dXbKMlGryq171J5Pii5I5mp8RAUId/NvFEA
gtYirrJxSFUOhGiwsb8u8x5Hsm4Y9ipm5QzvkPMv06JL8xkSueOG1LlZwMkoaZJO
MyQ8OZAmlZjf22/u93oukQIDAQABMA0GCSqGSIb3DQEBCwUAA4GBAMQ5AdET5UQN
ty+PMhJJ9Sp37likdvs28MlRBJqPsJL/JIhmBKRqfIno21XotV9fw5yYvRyn46et
ZjFW7zoNUQyzsnX0HtgUCSQZID93kPw4xtv5W+ByO/F29aUnU7E/M9wGqxFA9x2r
zkGPBG1XFm0asEZBNE0okyYs/YQCA3O6
-----END CERTIFICATE-----
