Certificate:
    Data:
        Version: 1 (0x0)
        Serial Number: 4097 (0x1001)
    Signature Algorithm: sha256WithRSAEncryption
        Issuer: C=CR, ST=San Jose, L=San Pedro, O=UCR, OU=ECCI, CN=Equipo 4
        Validity
            Not Before: May 24 01:28:32 2023 GMT
            Not After : May 23 01:28:32 2024 GMT
        Subject: CN=fabian.gonzalezrojas, ST=San Jose, C=CR, O=UCR, OU=ECCI
        Subject Public Key Info:
            Public Key Algorithm: rsaEncryption
                Public-Key: (2048 bit)
                Modulus:
                    00:c4:57:ae:45:c0:a2:cc:1e:bd:77:58:94:01:ee:
                    46:61:c2:0c:8e:c7:ff:f3:b9:19:05:8f:a9:b0:fe:
                    17:7d:71:3b:a1:02:79:de:eb:f1:1b:b8:8d:a4:9c:
                    d7:ee:fa:41:2b:42:cf:68:7b:2a:3a:6f:6b:41:33:
                    0b:23:14:fc:ee:04:a0:56:9c:ab:01:ac:0b:99:0b:
                    e6:db:dc:66:07:70:55:27:e8:cb:8e:a7:30:b6:e4:
                    2c:a5:56:2c:74:73:b4:76:fa:d3:8b:e5:84:e7:c3:
                    5e:03:a5:91:ae:14:c3:02:68:84:60:43:df:bb:fe:
                    de:81:0e:08:09:24:54:3a:aa:44:e5:15:0b:65:ec:
                    9c:ef:83:c3:89:4e:db:ab:7f:df:3d:65:eb:05:14:
                    cc:e9:12:e3:01:aa:32:c9:d6:ff:fa:8e:34:13:45:
                    9c:5d:7d:f1:f2:0a:3f:a6:9c:a9:b2:b2:d4:c3:45:
                    fa:b5:fe:4b:0a:22:03:d1:02:ae:ae:b5:30:0d:9a:
                    5b:a0:7b:09:4e:a8:e1:57:c2:2d:5f:94:17:b1:39:
                    0a:75:da:dc:c4:45:9a:95:94:e3:84:c8:00:0f:23:
                    78:f0:03:dc:39:62:02:16:17:4a:73:89:e9:62:25:
                    fe:6b:ae:19:7e:e0:c2:db:15:34:e1:99:9a:d4:47:
                    3d:c9
                Exponent: 65537 (0x10001)
    Signature Algorithm: sha256WithRSAEncryption
         76:d9:d8:29:4c:ea:33:89:dc:00:70:8e:b4:06:08:77:da:05:
         28:04:4c:bd:4c:b3:ab:3a:39:58:7c:49:ce:34:d4:02:34:3d:
         49:c7:b7:e6:aa:78:03:41:c1:46:84:f8:1f:65:62:89:e0:29:
         2c:57:06:26:c6:f3:29:0b:b6:48:32:3a:16:ef:9b:a9:fa:62:
         ea:1b:1d:2c:21:f0:a7:ca:32:23:73:9e:53:b4:a6:bd:b8:92:
         53:a5:ae:de:6d:55:00:26:3d:62:f6:5a:aa:9d:45:83:b1:3a:
         8a:2f:ee:13:bf:2f:cd:9f:6b:1a:de:30:b2:ac:bc:60:96:aa:
         59:6d
-----BEGIN CERTIFICATE-----
MIICtDCCAh0CAhABMA0GCSqGSIb3DQEBCwUAMGQxCzAJBgNVBAYTAkNSMREwDwYD
VQQIDAhTYW4gSm9zZTESMBAGA1UEBwwJU2FuIFBlZHJvMQwwCgYDVQQKDANVQ1Ix
DTALBgNVBAsMBEVDQ0kxETAPBgNVBAMMCEVxdWlwbyA0MB4XDTIzMDUyNDAxMjgz
MloXDTI0MDUyMzAxMjgzMlowXDEdMBsGA1UEAwwUZmFiaWFuLmdvbnphbGV6cm9q
YXMxETAPBgNVBAgMCFNhbiBKb3NlMQswCQYDVQQGEwJDUjEMMAoGA1UECgwDVUNS
MQ0wCwYDVQQLDARFQ0NJMIIBIjANBgkqhkiG9w0BAQEFAAOCAQ8AMIIBCgKCAQEA
xFeuRcCizB69d1iUAe5GYcIMjsf/87kZBY+psP4XfXE7oQJ53uvxG7iNpJzX7vpB
K0LPaHsqOm9rQTMLIxT87gSgVpyrAawLmQvm29xmB3BVJ+jLjqcwtuQspVYsdHO0
dvrTi+WE58NeA6WRrhTDAmiEYEPfu/7egQ4ICSRUOqpE5RULZeyc74PDiU7bq3/f
PWXrBRTM6RLjAaoyydb/+o40E0WcXX3x8go/ppypsrLUw0X6tf5LCiID0QKurrUw
DZpboHsJTqjhV8ItX5QXsTkKddrcxEWalZTjhMgADyN48APcOWICFhdKc4npYiX+
a64ZfuDC2xU04Zma1Ec9yQIDAQABMA0GCSqGSIb3DQEBCwUAA4GBAHbZ2ClM6jOJ
3ABwjrQGCHfaBSgETL1Ms6s6OVh8Sc401AI0PUnHt+aqeANBwUaE+B9lYongKSxX
BibG8ykLtkgyOhbvm6n6YuobHSwh8KfKMiNznlO0pr24klOlrt5tVQAmPWL2Wqqd
RYOxOoov7hO/L82faxreMLKsvGCWqllt
-----END CERTIFICATE-----
