Certificate:
    Data:
        Version: 1 (0x0)
        Serial Number: 4100 (0x1004)
    Signature Algorithm: sha256WithRSAEncryption
        Issuer: C=CR, ST=San Jose, L=San Pedro, O=UCR, OU=ECCI, CN=Equipo 4
        Validity
            Not Before: Jun  4 21:39:27 2023 GMT
            Not After : Jun  3 21:39:27 2024 GMT
        Subject: CN=leonel.campos, ST=San Jose, C=CR/emailAddress=leonel.campos@ucr.ac.cr, O=UCR, OU=ECCI
        Subject Public Key Info:
            Public Key Algorithm: rsaEncryption
                Public-Key: (2048 bit)
                Modulus:
                    00:d4:4e:49:3b:4b:43:a6:5a:57:5c:5c:b5:06:c9:
                    99:b7:bb:b2:78:6b:fa:78:52:45:fc:0c:f4:89:b3:
                    7a:16:f7:4a:ef:09:f0:1b:8e:25:51:5e:28:2a:17:
                    18:f8:9f:c7:81:f6:ef:57:7c:d5:cc:ea:ae:ad:62:
                    0f:7a:01:3a:f7:31:56:5e:6c:6e:96:50:49:37:fc:
                    18:7f:4a:56:36:ca:1f:bc:3e:c8:6a:98:61:50:82:
                    70:cf:86:a6:c1:14:64:19:48:86:31:49:47:57:35:
                    2e:fa:29:52:34:f9:37:5b:6c:55:94:12:0e:77:32:
                    fe:33:31:f2:f6:3d:d5:a4:4e:f8:01:7d:d3:90:9e:
                    08:60:d5:5d:fa:cf:03:c5:d2:0f:2c:1d:54:88:76:
                    71:7c:38:9d:30:42:f8:61:27:ea:45:1f:14:ba:31:
                    f8:17:f5:8e:20:3a:8c:3f:33:6e:e3:40:a6:23:87:
                    50:d0:ac:94:54:d5:05:30:28:16:6d:a4:d2:ab:ca:
                    f4:3f:13:d5:12:c7:85:5a:dc:18:4f:c8:c7:2d:cf:
                    04:e7:15:84:5a:18:e6:5a:f2:08:e0:d4:51:26:e0:
                    a3:c9:f7:51:cc:ec:21:c2:43:ad:d1:e9:70:a1:62:
                    7d:c4:56:7e:73:0c:a6:a0:bb:9c:14:48:83:c2:42:
                    0b:f9
                Exponent: 65537 (0x10001)
    Signature Algorithm: sha256WithRSAEncryption
         27:a4:76:3d:db:8b:d2:20:9c:10:d3:7e:11:c6:ef:4c:66:8b:
         72:88:1a:10:6e:b7:94:44:aa:6a:a6:46:c9:d4:56:59:33:f5:
         c5:cd:57:ad:84:66:1a:db:fa:4c:4a:08:66:3f:5d:9f:f4:7b:
         1e:2d:b6:1b:79:23:69:e7:9d:8d:dd:49:03:11:ba:6d:c0:48:
         2c:27:8c:5c:23:4a:9f:5a:f3:b8:ad:c5:12:6c:64:90:51:df:
         b8:73:b8:e1:d3:c4:f0:e2:88:3d:7b:c4:68:c8:02:3d:49:01:
         65:d0:4d:25:68:6b:e6:c8:e7:10:fc:76:ae:14:24:52:90:16:
         14:83
-----BEGIN CERTIFICATE-----
MIIC1TCCAj4CAhAEMA0GCSqGSIb3DQEBCwUAMGQxCzAJBgNVBAYTAkNSMREwDwYD
VQQIDAhTYW4gSm9zZTESMBAGA1UEBwwJU2FuIFBlZHJvMQwwCgYDVQQKDANVQ1Ix
DTALBgNVBAsMBEVDQ0kxETAPBgNVBAMMCEVxdWlwbyA0MB4XDTIzMDYwNDIxMzky
N1oXDTI0MDYwMzIxMzkyN1owfTEWMBQGA1UEAwwNbGVvbmVsLmNhbXBvczERMA8G
A1UECAwIU2FuIEpvc2UxCzAJBgNVBAYTAkNSMSYwJAYJKoZIhvcNAQkBFhdsZW9u
ZWwuY2FtcG9zQHVjci5hYy5jcjEMMAoGA1UECgwDVUNSMQ0wCwYDVQQLDARFQ0NJ
MIIBIjANBgkqhkiG9w0BAQEFAAOCAQ8AMIIBCgKCAQEA1E5JO0tDplpXXFy1BsmZ
t7uyeGv6eFJF/Az0ibN6FvdK7wnwG44lUV4oKhcY+J/HgfbvV3zVzOqurWIPegE6
9zFWXmxullBJN/wYf0pWNsofvD7IaphhUIJwz4amwRRkGUiGMUlHVzUu+ilSNPk3
W2xVlBIOdzL+MzHy9j3VpE74AX3TkJ4IYNVd+s8DxdIPLB1UiHZxfDidMEL4YSfq
RR8UujH4F/WOIDqMPzNu40CmI4dQ0KyUVNUFMCgWbaTSq8r0PxPVEseFWtwYT8jH
Lc8E5xWEWhjmWvII4NRRJuCjyfdRzOwhwkOt0elwoWJ9xFZ+cwymoLucFEiDwkIL
+QIDAQABMA0GCSqGSIb3DQEBCwUAA4GBACekdj3bi9IgnBDTfhHG70xmi3KIGhBu
t5REqmqmRsnUVlkz9cXNV62EZhrb+kxKCGY/XZ/0ex4ttht5I2nnnY3dSQMRum3A
SCwnjFwjSp9a87itxRJsZJBR37hzuOHTxPDiiD17xGjIAj1JAWXQTSVoa+bI5xD8
dq4UJFKQFhSD
-----END CERTIFICATE-----
