Certificate:
    Data:
        Version: 1 (0x0)
        Serial Number: 4101 (0x1005)
    Signature Algorithm: sha256WithRSAEncryption
        Issuer: C=CR, ST=San Jose, L=San Pedro, O=UCR, OU=ECCI, CN=Equipo 4
        Validity
            Not Before: Jun  4 21:39:48 2023 GMT
            Not After : Jun  3 21:39:48 2024 GMT
        Subject: CN=maeva.murcia, ST=San Jose, C=CR, O=UCR, OU=ECCI
        Subject Public Key Info:
            Public Key Algorithm: rsaEncryption
                Public-Key: (2048 bit)
                Modulus:
                    00:c4:9d:35:8c:28:72:8b:fe:28:d9:ed:b6:66:d0:
                    78:23:5d:16:8b:12:c7:9b:08:22:95:91:3c:f1:03:
                    8a:61:7e:f5:6f:8d:a0:2f:43:d6:cd:ba:b4:ee:3d:
                    37:8f:c2:98:dd:54:58:e6:80:8b:6c:07:6b:eb:40:
                    fa:2c:6a:cd:38:80:5b:ea:24:51:ec:7e:09:0c:d0:
                    f8:bd:a2:7e:35:35:71:a6:9a:08:ab:9a:7c:ac:fd:
                    cd:b2:93:1b:86:06:13:7f:9d:50:84:9f:d0:91:85:
                    d1:ee:43:7b:77:d4:a3:45:ba:7a:dd:87:2c:6d:36:
                    ec:99:8c:66:e5:07:3c:76:47:e7:26:36:93:97:11:
                    5d:17:21:bf:69:f3:97:5e:52:bd:5c:ff:3d:7c:d5:
                    11:c0:aa:b0:78:3d:6c:39:2b:b0:13:e7:ac:f5:af:
                    f2:d8:fd:cf:44:2e:65:e6:13:02:77:3f:f2:39:b5:
                    c7:0f:9c:cb:e5:47:06:e6:17:c6:32:d1:9a:67:b0:
                    74:9e:bc:e3:10:01:9c:07:3b:10:c2:10:e3:29:a4:
                    89:a0:61:0d:be:b4:41:f4:52:a7:79:76:cc:0a:32:
                    bc:0e:5e:cd:88:6b:32:74:e6:a9:03:be:87:05:54:
                    73:40:8e:a8:a2:f4:60:51:3f:33:85:b8:81:c8:01:
                    99:83
                Exponent: 65537 (0x10001)
    Signature Algorithm: sha256WithRSAEncryption
         98:ec:e7:5f:97:27:a9:7f:07:21:58:f4:44:a6:45:77:2e:c4:
         c3:24:ee:97:59:f7:38:cb:3f:92:73:a2:ab:a9:fb:5a:5e:e8:
         69:ca:3a:9c:2b:9c:be:12:9a:33:f7:26:2e:49:0c:00:03:05:
         f7:15:ea:80:7a:72:ef:8b:05:77:3d:26:96:5b:c2:7f:29:dd:
         b6:be:be:0d:1d:a1:c7:cd:fc:77:3c:60:d9:b5:82:9e:a0:f4:
         52:96:9a:78:97:e0:74:86:dd:7a:d1:e3:2a:fd:ff:58:4c:a2:
         f7:37:81:6f:fa:78:f8:4c:d6:e8:85:29:63:15:e1:66:97:74:
         e9:94
-----BEGIN CERTIFICATE-----
MIICrDCCAhUCAhAFMA0GCSqGSIb3DQEBCwUAMGQxCzAJBgNVBAYTAkNSMREwDwYD
VQQIDAhTYW4gSm9zZTESMBAGA1UEBwwJU2FuIFBlZHJvMQwwCgYDVQQKDANVQ1Ix
DTALBgNVBAsMBEVDQ0kxETAPBgNVBAMMCEVxdWlwbyA0MB4XDTIzMDYwNDIxMzk0
OFoXDTI0MDYwMzIxMzk0OFowVDEVMBMGA1UEAwwMbWFldmEubXVyY2lhMREwDwYD
VQQIDAhTYW4gSm9zZTELMAkGA1UEBhMCQ1IxDDAKBgNVBAoMA1VDUjENMAsGA1UE
CwwERUNDSTCCASIwDQYJKoZIhvcNAQEBBQADggEPADCCAQoCggEBAMSdNYwocov+
KNnttmbQeCNdFosSx5sIIpWRPPEDimF+9W+NoC9D1s26tO49N4/CmN1UWOaAi2wH
a+tA+ixqzTiAW+okUex+CQzQ+L2ifjU1caaaCKuafKz9zbKTG4YGE3+dUISf0JGF
0e5De3fUo0W6et2HLG027JmMZuUHPHZH5yY2k5cRXRchv2nzl15SvVz/PXzVEcCq
sHg9bDkrsBPnrPWv8tj9z0QuZeYTAnc/8jm1xw+cy+VHBuYXxjLRmmewdJ684xAB
nAc7EMIQ4ymkiaBhDb60QfRSp3l2zAoyvA5ezYhrMnTmqQO+hwVUc0COqKL0YFE/
M4W4gcgBmYMCAwEAATANBgkqhkiG9w0BAQsFAAOBgQCY7OdflyepfwchWPREpkV3
LsTDJO6XWfc4yz+Sc6KrqftaXuhpyjqcK5y+Epoz9yYuSQwAAwX3FeqAenLviwV3
PSaWW8J/Kd22vr4NHaHHzfx3PGDZtYKeoPRSlpp4l+B0ht160eMq/f9YTKL3N4Fv
+nj4TNbohSljFeFml3TplA==
-----END CERTIFICATE-----
