Certificate:
    Data:
        Version: 1 (0x0)
        Serial Number: 4102 (0x1006)
    Signature Algorithm: sha256WithRSAEncryption
        Issuer: C=CR, ST=San Jose, L=San Pedro, O=UCR, OU=ECCI, CN=Equipo 4
        Validity
            Not Before: Jun  4 21:40:08 2023 GMT
            Not After : Jun  3 21:40:08 2024 GMT
        Subject: CN=manuel.arroyo, ST=San Jose, C=CR, O=UCR, OU=ECCI
        Subject Public Key Info:
            Public Key Algorithm: rsaEncryption
                Public-Key: (2048 bit)
                Modulus:
                    00:a7:4f:54:ee:95:78:4a:e5:6b:49:16:76:b9:60:
                    b4:a6:ea:84:f2:3c:ab:28:5e:cf:fe:a1:32:a8:14:
                    49:0e:ed:70:5f:29:73:c5:f8:52:55:b2:d7:94:17:
                    44:7c:14:d0:73:92:c3:95:82:95:64:8a:6d:6e:8e:
                    a3:90:f6:b0:9f:32:9a:c7:82:77:5a:3c:b1:98:98:
                    05:ec:c1:8f:2d:87:08:63:f9:df:84:ed:21:11:15:
                    e8:df:3d:f3:29:dc:8e:30:1f:e6:6c:15:3a:42:b1:
                    ce:de:45:0c:2b:27:43:f0:43:f0:93:94:e9:61:e4:
                    3b:06:93:27:f2:2c:25:b9:6d:20:4e:12:71:b1:49:
                    a5:81:81:7d:71:00:e9:5b:25:c9:1a:fd:46:f3:46:
                    96:e8:85:c7:9a:92:24:16:88:dc:26:7b:ed:34:9f:
                    c4:ac:82:1a:4e:68:00:90:cd:73:0e:48:ed:33:0d:
                    a5:9e:f8:f1:ff:b6:85:04:fd:e0:77:e4:24:de:07:
                    8a:11:0d:0c:11:c5:bd:e3:83:7c:e4:a1:dc:d4:72:
                    c0:2f:62:c0:66:58:bb:d7:bc:0e:51:e4:7d:e1:c9:
                    39:5e:9e:74:be:9d:cb:e7:75:ed:9c:03:63:88:11:
                    f5:1b:70:33:82:4f:50:89:37:f0:6b:2d:ff:a5:68:
                    71:37
                Exponent: 65537 (0x10001)
    Signature Algorithm: sha256WithRSAEncryption
         ac:86:c4:65:72:39:a6:a8:80:9c:c3:bb:c9:be:a4:b4:2e:b8:
         40:03:d2:95:a7:d5:bc:7d:45:6c:f9:07:a5:5b:1d:4c:ca:7f:
         b0:29:a0:de:04:c2:15:c8:13:9f:e3:96:9f:2e:f6:aa:01:a3:
         d9:fd:22:6d:dc:ca:eb:7b:72:6f:bb:74:79:cb:4d:34:49:51:
         a0:07:a2:60:46:97:e8:dc:34:a6:13:fe:43:df:2d:62:b3:27:
         f3:fd:5b:93:e2:4a:9e:f8:38:29:3d:fa:fe:fc:e4:61:d2:79:
         ad:73:f7:1d:b1:82:b1:b8:56:ad:33:44:03:ef:f7:41:d8:f4:
         52:ce
-----BEGIN CERTIFICATE-----
MIICrTCCAhYCAhAGMA0GCSqGSIb3DQEBCwUAMGQxCzAJBgNVBAYTAkNSMREwDwYD
VQQIDAhTYW4gSm9zZTESMBAGA1UEBwwJU2FuIFBlZHJvMQwwCgYDVQQKDANVQ1Ix
DTALBgNVBAsMBEVDQ0kxETAPBgNVBAMMCEVxdWlwbyA0MB4XDTIzMDYwNDIxNDAw
OFoXDTI0MDYwMzIxNDAwOFowVTEWMBQGA1UEAwwNbWFudWVsLmFycm95bzERMA8G
A1UECAwIU2FuIEpvc2UxCzAJBgNVBAYTAkNSMQwwCgYDVQQKDANVQ1IxDTALBgNV
BAsMBEVDQ0kwggEiMA0GCSqGSIb3DQEBAQUAA4IBDwAwggEKAoIBAQCnT1TulXhK
5WtJFna5YLSm6oTyPKsoXs/+oTKoFEkO7XBfKXPF+FJVsteUF0R8FNBzksOVgpVk
im1ujqOQ9rCfMprHgndaPLGYmAXswY8thwhj+d+E7SERFejfPfMp3I4wH+ZsFTpC
sc7eRQwrJ0PwQ/CTlOlh5DsGkyfyLCW5bSBOEnGxSaWBgX1xAOlbJcka/UbzRpbo
hceakiQWiNwme+00n8SsghpOaACQzXMOSO0zDaWe+PH/toUE/eB35CTeB4oRDQwR
xb3jg3zkodzUcsAvYsBmWLvXvA5R5H3hyTlennS+ncvnde2cA2OIEfUbcDOCT1CJ
N/BrLf+laHE3AgMBAAEwDQYJKoZIhvcNAQELBQADgYEArIbEZXI5pqiAnMO7yb6k
tC64QAPSlafVvH1FbPkHpVsdTMp/sCmg3gTCFcgTn+OWny72qgGj2f0ibdzK63ty
b7t0ectNNElRoAeiYEaX6Nw0phP+Q98tYrMn8/1bk+JKnvg4KT36/vzkYdJ5rXP3
HbGCsbhWrTNEA+/3Qdj0Us4=
-----END CERTIFICATE-----
