Certificate:
    Data:
        Version: 1 (0x0)
        Serial Number: 4096 (0x1000)
    Signature Algorithm: sha256WithRSAEncryption
        Issuer: C=CR, ST=San Jose, L=San Pedro, O=UCR, OU=ECCI, CN=Equipo 4
        Validity
            Not Before: May 24 01:25:24 2023 GMT
            Not After : May 23 01:25:24 2024 GMT
        Subject: CN=mariana.murilloquintana, ST=San Jose, C=CR/emailAddress=mariana.murilloquintana@ucr.ac.cr, O=UCR, OU=ECCI
        Subject Public Key Info:
            Public Key Algorithm: rsaEncryption
                Public-Key: (2048 bit)
                Modulus:
                    00:c4:57:ae:45:c0:a2:cc:1e:bd:77:58:94:01:ee:
                    46:61:c2:0c:8e:c7:ff:f3:b9:19:05:8f:a9:b0:fe:
                    17:7d:71:3b:a1:02:79:de:eb:f1:1b:b8:8d:a4:9c:
                    d7:ee:fa:41:2b:42:cf:68:7b:2a:3a:6f:6b:41:33:
                    0b:23:14:fc:ee:04:a0:56:9c:ab:01:ac:0b:99:0b:
                    e6:db:dc:66:07:70:55:27:e8:cb:8e:a7:30:b6:e4:
                    2c:a5:56:2c:74:73:b4:76:fa:d3:8b:e5:84:e7:c3:
                    5e:03:a5:91:ae:14:c3:02:68:84:60:43:df:bb:fe:
                    de:81:0e:08:09:24:54:3a:aa:44:e5:15:0b:65:ec:
                    9c:ef:83:c3:89:4e:db:ab:7f:df:3d:65:eb:05:14:
                    cc:e9:12:e3:01:aa:32:c9:d6:ff:fa:8e:34:13:45:
                    9c:5d:7d:f1:f2:0a:3f:a6:9c:a9:b2:b2:d4:c3:45:
                    fa:b5:fe:4b:0a:22:03:d1:02:ae:ae:b5:30:0d:9a:
                    5b:a0:7b:09:4e:a8:e1:57:c2:2d:5f:94:17:b1:39:
                    0a:75:da:dc:c4:45:9a:95:94:e3:84:c8:00:0f:23:
                    78:f0:03:dc:39:62:02:16:17:4a:73:89:e9:62:25:
                    fe:6b:ae:19:7e:e0:c2:db:15:34:e1:99:9a:d4:47:
                    3d:c9
                Exponent: 65537 (0x10001)
    Signature Algorithm: sha256WithRSAEncryption
         5b:37:f1:63:2b:f8:ae:95:62:03:60:5c:ae:eb:d0:f0:80:56:
         ba:05:a8:7f:ad:eb:58:6e:31:df:2a:cb:43:93:de:47:2b:17:
         65:1d:8d:4a:57:c9:df:c3:e2:20:cb:fe:1f:f4:2d:a2:cf:bc:
         78:81:4c:0e:86:f2:9e:00:ab:ca:8d:c4:9a:d7:bb:56:60:50:
         34:fa:3a:3b:24:92:8f:3f:13:d1:22:f4:98:64:1f:13:53:1e:
         e9:62:d4:a1:87:f3:20:54:90:db:53:43:af:04:f1:39:22:76:
         ff:0f:02:d6:b4:27:30:73:52:1d:a1:56:3f:e2:ee:8b:62:27:
         6a:39
-----BEGIN CERTIFICATE-----
MIIC6jCCAlMCAhAAMA0GCSqGSIb3DQEBCwUAMGQxCzAJBgNVBAYTAkNSMREwDwYD
VQQIDAhTYW4gSm9zZTESMBAGA1UEBwwJU2FuIFBlZHJvMQwwCgYDVQQKDANVQ1Ix
DTALBgNVBAsMBEVDQ0kxETAPBgNVBAMMCEVxdWlwbyA0MB4XDTIzMDUyNDAxMjUy
NFoXDTI0MDUyMzAxMjUyNFowgZExIDAeBgNVBAMMF21hcmlhbmEubXVyaWxsb3F1
aW50YW5hMREwDwYDVQQIDAhTYW4gSm9zZTELMAkGA1UEBhMCQ1IxMDAuBgkqhkiG
9w0BCQEWIW1hcmlhbmEubXVyaWxsb3F1aW50YW5hQHVjci5hYy5jcjEMMAoGA1UE
CgwDVUNSMQ0wCwYDVQQLDARFQ0NJMIIBIjANBgkqhkiG9w0BAQEFAAOCAQ8AMIIB
CgKCAQEAxFeuRcCizB69d1iUAe5GYcIMjsf/87kZBY+psP4XfXE7oQJ53uvxG7iN
pJzX7vpBK0LPaHsqOm9rQTMLIxT87gSgVpyrAawLmQvm29xmB3BVJ+jLjqcwtuQs
pVYsdHO0dvrTi+WE58NeA6WRrhTDAmiEYEPfu/7egQ4ICSRUOqpE5RULZeyc74PD
iU7bq3/fPWXrBRTM6RLjAaoyydb/+o40E0WcXX3x8go/ppypsrLUw0X6tf5LCiID
0QKurrUwDZpboHsJTqjhV8ItX5QXsTkKddrcxEWalZTjhMgADyN48APcOWICFhdK
c4npYiX+a64ZfuDC2xU04Zma1Ec9yQIDAQABMA0GCSqGSIb3DQEBCwUAA4GBAFs3
8WMr+K6VYgNgXK7r0PCAVroFqH+t61huMd8qy0OT3kcrF2UdjUpXyd/D4iDL/h/0
LaLPvHiBTA6G8p4Aq8qNxJrXu1ZgUDT6Ojskko8/E9Ei9JhkHxNTHuli1KGH8yBU
kNtTQ68E8Tkidv8PAta0JzBzUh2hVj/i7otiJ2o5
-----END CERTIFICATE-----
