Certificate:
    Data:
        Version: 1 (0x0)
        Serial Number: 4104 (0x1008)
    Signature Algorithm: sha256WithRSAEncryption
        Issuer: C=CR, ST=San Jose, L=San Pedro, O=UCR, OU=ECCI, CN=Equipo 4
        Validity
            Not Before: Jun  4 21:40:43 2023 GMT
            Not After : Jun  3 21:40:43 2024 GMT
        Subject: CN=rodrigo.piedra, ST=San Jose, C=CR, O=UCR, OU=ECCI
        Subject Public Key Info:
            Public Key Algorithm: rsaEncryption
                Public-Key: (2048 bit)
                Modulus:
                    00:a6:cc:3f:b7:a7:65:46:25:38:83:89:39:d6:49:
                    57:60:7d:21:1f:fe:e6:00:04:83:12:d7:70:f1:17:
                    fb:9f:1f:a7:6f:bf:52:a5:fd:1a:17:5a:83:2b:81:
                    d5:6c:e8:a6:22:49:0c:ed:8a:42:29:74:35:f8:97:
                    13:a4:1d:12:48:39:22:c5:b1:a8:30:58:b0:ad:7a:
                    82:0d:e0:83:98:8b:76:8b:35:dd:36:30:84:9f:0b:
                    20:4a:78:45:60:6c:a8:68:b1:f7:75:53:28:ed:37:
                    6e:77:3e:ca:2c:4c:a6:44:c6:d7:9c:1c:c6:0d:d1:
                    e4:41:3d:1b:51:f4:80:27:00:91:3a:a7:38:b1:59:
                    43:5f:0c:30:d6:5a:d9:a4:ec:03:63:df:13:2c:a4:
                    06:b6:b6:dd:24:09:f2:c4:9d:f2:6e:32:81:15:2f:
                    73:58:7d:1a:5b:c5:47:5b:56:77:02:93:70:6a:5c:
                    6a:b0:81:54:56:3b:56:6e:9b:3b:94:1f:0c:0f:5b:
                    f6:d4:3c:90:71:94:5c:85:d8:9e:eb:fa:68:fc:5c:
                    2d:3f:de:0b:77:3f:11:d4:46:4d:4f:2a:c2:c5:a6:
                    ad:45:51:c5:71:b4:9f:2b:96:82:ed:41:e7:ac:f3:
                    b3:79:39:f2:cd:5e:60:01:07:83:25:a6:b2:b9:a4:
                    3b:cb
                Exponent: 65537 (0x10001)
    Signature Algorithm: sha256WithRSAEncryption
         30:0d:61:6a:e6:ea:ac:b5:b8:50:08:ce:1f:81:e8:cb:09:48:
         2c:9c:1b:50:c1:bb:20:5a:de:53:f9:af:d9:12:66:59:41:50:
         2e:ab:f7:6e:0b:89:79:8c:bc:15:d1:48:f7:d7:b8:8f:66:61:
         8c:e0:5b:5f:53:e2:d4:e0:3d:6d:aa:95:36:61:87:79:d8:d1:
         ee:4f:56:a0:13:25:b5:8e:ad:85:37:45:2e:e9:e2:04:49:8e:
         5a:ce:0e:ae:ea:aa:c2:09:32:31:71:5b:be:41:8b:a7:4a:49:
         96:6b:b9:f8:c9:5c:84:93:5a:98:1f:e6:b8:70:61:9a:31:37:
         a0:33
-----BEGIN CERTIFICATE-----
MIICrjCCAhcCAhAIMA0GCSqGSIb3DQEBCwUAMGQxCzAJBgNVBAYTAkNSMREwDwYD
VQQIDAhTYW4gSm9zZTESMBAGA1UEBwwJU2FuIFBlZHJvMQwwCgYDVQQKDANVQ1Ix
DTALBgNVBAsMBEVDQ0kxETAPBgNVBAMMCEVxdWlwbyA0MB4XDTIzMDYwNDIxNDA0
M1oXDTI0MDYwMzIxNDA0M1owVjEXMBUGA1UEAwwOcm9kcmlnby5waWVkcmExETAP
BgNVBAgMCFNhbiBKb3NlMQswCQYDVQQGEwJDUjEMMAoGA1UECgwDVUNSMQ0wCwYD
VQQLDARFQ0NJMIIBIjANBgkqhkiG9w0BAQEFAAOCAQ8AMIIBCgKCAQEApsw/t6dl
RiU4g4k51klXYH0hH/7mAASDEtdw8Rf7nx+nb79Spf0aF1qDK4HVbOimIkkM7YpC
KXQ1+JcTpB0SSDkixbGoMFiwrXqCDeCDmIt2izXdNjCEnwsgSnhFYGyoaLH3dVMo
7Tdudz7KLEymRMbXnBzGDdHkQT0bUfSAJwCROqc4sVlDXwww1lrZpOwDY98TLKQG
trbdJAnyxJ3ybjKBFS9zWH0aW8VHW1Z3ApNwalxqsIFUVjtWbps7lB8MD1v21DyQ
cZRchdie6/po/FwtP94Ldz8R1EZNTyrCxaatRVHFcbSfK5aC7UHnrPOzeTnyzV5g
AQeDJaayuaQ7ywIDAQABMA0GCSqGSIb3DQEBCwUAA4GBADANYWrm6qy1uFAIzh+B
6MsJSCycG1DBuyBa3lP5r9kSZllBUC6r924LiXmMvBXRSPfXuI9mYYzgW19T4tTg
PW2qlTZhh3nY0e5PVqATJbWOrYU3RS7p4gRJjlrODq7qqsIJMjFxW75Bi6dKSZZr
ufjJXISTWpgf5rhwYZoxN6Az
-----END CERTIFICATE-----
